; ModuleID = '1/24.c'
source_filename = "1/24.c"
target datalayout = "e-m:e-p270:32:32-p271:32:32-p272:64:64-i64:64-f80:128-n8:16:32:64-S128"
target triple = "x86_64-pc-linux-gnu"

@l = dso_local global i32 0, align 4
@.str = private unnamed_addr constant [3 x i8] c"%d\00", align 1
@x = common dso_local global i32 0, align 4
@a = common dso_local global [1000 x i32] zeroinitializer, align 16
@.str.1 = private unnamed_addr constant [4 x i8] c"%d\0A\00", align 1

; Function Attrs: noinline nounwind uwtable
define dso_local i32 @main() #0 {
  %1 = alloca i32, align 4
  %2 = alloca i32, align 4
  %3 = alloca i32, align 4
  %4 = alloca i32, align 4
  %5 = alloca i32, align 4
  %6 = alloca i32, align 4
  %7 = alloca i32, align 4
  %8 = alloca i32, align 4
  store i32 0, i32* %1, align 4
  %9 = call i32 (i8*, ...) @__isoc99_scanf(i8* getelementptr inbounds ([3 x i8], [3 x i8]* @.str, i64 0, i64 0), i32* %6)
  store i32 0, i32* %5, align 4
  br label %10

10:                                               ; preds = %44, %0
  %11 = load i32, i32* %5, align 4
  %12 = load i32, i32* %6, align 4
  %13 = icmp slt i32 %11, %12
  br i1 %13, label %14, label %47

14:                                               ; preds = %10
  store i32 1, i32* %4, align 4
  store i32 0, i32* @l, align 4
  %15 = call i32 (i8*, ...) @__isoc99_scanf(i8* getelementptr inbounds ([3 x i8], [3 x i8]* @.str, i64 0, i64 0), i32* @x)
  store i32 2, i32* %2, align 4
  br label %16

16:                                               ; preds = %33, %14
  %17 = load i32, i32* %2, align 4
  %18 = load i32, i32* @x, align 4
  %19 = icmp sle i32 %17, %18
  br i1 %19, label %20, label %36

20:                                               ; preds = %16
  %21 = load i32, i32* @x, align 4
  %22 = load i32, i32* %2, align 4
  %23 = srem i32 %21, %22
  %24 = icmp eq i32 %23, 0
  br i1 %24, label %25, label %32

25:                                               ; preds = %20
  %26 = load i32, i32* %2, align 4
  %27 = load i32, i32* %4, align 4
  %28 = sext i32 %27 to i64
  %29 = getelementptr inbounds [1000 x i32], [1000 x i32]* @a, i64 0, i64 %28
  store i32 %26, i32* %29, align 4
  %30 = load i32, i32* %4, align 4
  %31 = add nsw i32 %30, 1
  store i32 %31, i32* %4, align 4
  br label %32

32:                                               ; preds = %25, %20
  br label %33

33:                                               ; preds = %32
  %34 = load i32, i32* %2, align 4
  %35 = add nsw i32 %34, 1
  store i32 %35, i32* %2, align 4
  br label %16

36:                                               ; preds = %16
  %37 = load i32, i32* %4, align 4
  %38 = sub nsw i32 %37, 1
  %39 = load i32, i32* @x, align 4
  %40 = call i32 @fff(i32 1, i32 %38, i32 1, i32 %39)
  %41 = load i32, i32* @l, align 4
  %42 = load i32, i32* @x, align 4
  %43 = call i32 (i8*, ...) @printf(i8* getelementptr inbounds ([4 x i8], [4 x i8]* @.str.1, i64 0, i64 0), i32 %41, i32 %42)
  br label %44

44:                                               ; preds = %36
  %45 = load i32, i32* %5, align 4
  %46 = add nsw i32 %45, 1
  store i32 %46, i32* %5, align 4
  br label %10

47:                                               ; preds = %10
  %48 = load i32, i32* %1, align 4
  ret i32 %48
}

declare dso_local i32 @__isoc99_scanf(i8*, ...) #1

; Function Attrs: noinline nounwind uwtable
define dso_local i32 @fff(i32 %0, i32 %1, i32 %2, i32 %3) #0 {
  %5 = alloca i32, align 4
  %6 = alloca i32, align 4
  %7 = alloca i32, align 4
  %8 = alloca i32, align 4
  %9 = alloca i32, align 4
  %10 = alloca i32, align 4
  %11 = alloca i32, align 4
  %12 = alloca i32, align 4
  %13 = alloca i32, align 4
  %14 = alloca i32, align 4
  %15 = alloca i32, align 4
  store i32 %0, i32* %6, align 4
  store i32 %1, i32* %7, align 4
  store i32 %2, i32* %8, align 4
  store i32 %3, i32* %9, align 4
  %16 = load i32, i32* %8, align 4
  store i32 %16, i32* %10, align 4
  br label %17

17:                                               ; preds = %59, %4
  %18 = load i32, i32* %10, align 4
  %19 = load i32, i32* %7, align 4
  %20 = icmp sle i32 %18, %19
  br i1 %20, label %21, label %62

21:                                               ; preds = %17
  %22 = load i32, i32* %9, align 4
  %23 = load i32, i32* %10, align 4
  %24 = sext i32 %23 to i64
  %25 = getelementptr inbounds [1000 x i32], [1000 x i32]* @a, i64 0, i64 %24
  %26 = load i32, i32* %25, align 4
  %27 = srem i32 %22, %26
  %28 = icmp eq i32 %27, 0
  br i1 %28, label %29, label %58

29:                                               ; preds = %21
  %30 = load i32, i32* %9, align 4
  %31 = load i32, i32* %10, align 4
  %32 = sext i32 %31 to i64
  %33 = getelementptr inbounds [1000 x i32], [1000 x i32]* @a, i64 0, i64 %32
  %34 = load i32, i32* %33, align 4
  %35 = sdiv i32 %30, %34
  store i32 %35, i32* %9, align 4
  %36 = load i32, i32* %9, align 4
  %37 = icmp eq i32 %36, 1
  br i1 %37, label %38, label %41

38:                                               ; preds = %29
  %39 = load i32, i32* @l, align 4
  %40 = add nsw i32 %39, 1
  store i32 %40, i32* @l, align 4
  br label %41

41:                                               ; preds = %38, %29
  %42 = load i32, i32* %9, align 4
  %43 = icmp sgt i32 %42, 1
  br i1 %43, label %44, label %51

44:                                               ; preds = %41
  %45 = load i32, i32* %6, align 4
  %46 = add nsw i32 %45, 1
  %47 = load i32, i32* %7, align 4
  %48 = load i32, i32* %10, align 4
  %49 = load i32, i32* %9, align 4
  %50 = call i32 @fff(i32 %46, i32 %47, i32 %48, i32 %49)
  br label %51

51:                                               ; preds = %44, %41
  %52 = load i32, i32* %9, align 4
  %53 = load i32, i32* %10, align 4
  %54 = sext i32 %53 to i64
  %55 = getelementptr inbounds [1000 x i32], [1000 x i32]* @a, i64 0, i64 %54
  %56 = load i32, i32* %55, align 4
  %57 = mul nsw i32 %52, %56
  store i32 %57, i32* %9, align 4
  br label %58

58:                                               ; preds = %51, %21
  br label %59

59:                                               ; preds = %58
  %60 = load i32, i32* %10, align 4
  %61 = add nsw i32 %60, 1
  store i32 %61, i32* %10, align 4
  br label %17

62:                                               ; preds = %17
  %63 = load i32, i32* %5, align 4
  ret i32 %63
}

declare dso_local i32 @printf(i8*, ...) #1


!llvm.module.flags = !{!0}
!llvm.ident = !{!1}

!0 = !{i32 1, !"wchar_size", i32 4}
!1 = !{!"clang version 10.0.0-4ubuntu1 "}
